target datalayout = "e-m:e-p270:32:32-p271:32:32-p272:64:64-i64:64-i128:128-f80:128-n8:16:32:64-S128"
target triple = "x86_64-pc-linux-gnu"

%struct.ldbState = type { ptr, i32, i32, ptr, ptr, ptr, [64 x i32], i32, i32, i32, ptr, i32, i32, ptr, i64, i32 }
%struct.sdshdr8 = type { i8, i8, i8, [0 x i8] }
%struct.sdshdr16 = type <{ i16, i16, i8, [0 x i8] }>
%struct.sdshdr32 = type <{ i32, i32, i8, [0 x i8] }>
%struct.sdshdr64 = type <{ i64, i64, i8, [0 x i8] }>

@ldb = dso_local global %struct.ldbState zeroinitializer, align 8
@.str.62 = private unnamed_addr constant [3 x i8] c"\0D\0A\00", align 1
@ldbReplParseCommand.protocol_error = internal global ptr @.str.73, align 8

; Function Attrs: inlinehint nounwind willreturn memory(read) uwtable
define available_externally i32 @atoi(ptr noundef nonnull %0) #11 {
  %2 = alloca ptr, align 8
  store ptr %0, ptr %2, align 8, !tbaa !16
  %3 = load ptr, ptr %2, align 8, !tbaa !16
  %4 = call i64 @strtol(ptr noundef %3, ptr noundef null, i32 noundef 10) #14
  %5 = trunc i64 %4 to i32
  ret i32 %5
}

; Function Attrs: inlinehint nounwind uwtable
define internal i64 @sdslen(ptr noundef %0) #6 {
  %2 = alloca i64, align 8
  %3 = alloca ptr, align 8
  %4 = alloca i8, align 1
  %5 = alloca i32, align 4
  store ptr %0, ptr %3, align 8, !tbaa !16
  call void @llvm.lifetime.start.p0(i64 1, ptr %4) #14
  %6 = load ptr, ptr %3, align 8, !tbaa !16
  %7 = getelementptr inbounds i8, ptr %6, i64 -1
  %8 = load i8, ptr %7, align 1, !tbaa !21
  store i8 %8, ptr %4, align 1, !tbaa !21
  %9 = load i8, ptr %4, align 1, !tbaa !21
  %10 = zext i8 %9 to i32
  %11 = and i32 %10, 7
  switch i32 %11, label %40 [
    i32 0, label %12
    i32 1, label %17
    i32 2, label %23
    i32 3, label %29
    i32 4, label %35
  ]

12:                                               ; preds = %1
  %13 = load i8, ptr %4, align 1, !tbaa !21
  %14 = zext i8 %13 to i32
  %15 = ashr i32 %14, 3
  %16 = sext i32 %15 to i64
  store i64 %16, ptr %2, align 8
  store i32 1, ptr %5, align 4
  br label %41

17:                                               ; preds = %1
  %18 = load ptr, ptr %3, align 8, !tbaa !16
  %19 = getelementptr inbounds i8, ptr %18, i64 -3
  %20 = getelementptr inbounds nuw %struct.sdshdr8, ptr %19, i32 0, i32 0
  %21 = load i8, ptr %20, align 1, !tbaa !21
  %22 = zext i8 %21 to i64
  store i64 %22, ptr %2, align 8
  store i32 1, ptr %5, align 4
  br label %41

23:                                               ; preds = %1
  %24 = load ptr, ptr %3, align 8, !tbaa !16
  %25 = getelementptr inbounds i8, ptr %24, i64 -5
  %26 = getelementptr inbounds nuw %struct.sdshdr16, ptr %25, i32 0, i32 0
  %27 = load i16, ptr %26, align 1, !tbaa !109
  %28 = zext i16 %27 to i64
  store i64 %28, ptr %2, align 8
  store i32 1, ptr %5, align 4
  br label %41

29:                                               ; preds = %1
  %30 = load ptr, ptr %3, align 8, !tbaa !16
  %31 = getelementptr inbounds i8, ptr %30, i64 -9
  %32 = getelementptr inbounds nuw %struct.sdshdr32, ptr %31, i32 0, i32 0
  %33 = load i32, ptr %32, align 1, !tbaa !19
  %34 = zext i32 %33 to i64
  store i64 %34, ptr %2, align 8
  store i32 1, ptr %5, align 4
  br label %41

35:                                               ; preds = %1
  %36 = load ptr, ptr %3, align 8, !tbaa !16
  %37 = getelementptr inbounds i8, ptr %36, i64 -17
  %38 = getelementptr inbounds nuw %struct.sdshdr64, ptr %37, i32 0, i32 0
  %39 = load i64, ptr %38, align 1, !tbaa !18
  store i64 %39, ptr %2, align 8
  store i32 1, ptr %5, align 4
  br label %41

40:                                               ; preds = %1
  store i64 0, ptr %2, align 8
  store i32 1, ptr %5, align 4
  br label %41

41:                                               ; preds = %40, %35, %29, %23, %17, %12
  call void @llvm.lifetime.end.p0(i64 1, ptr %4) #14
  %42 = load i64, ptr %2, align 8
  ret i64 %42
}

; Function Attrs: nounwind uwtable
define dso_local ptr @ldbReplParseCommand(ptr noundef %0, ptr noundef %1) #0 {
  %3 = alloca ptr, align 8
  %4 = alloca ptr, align 8
  %5 = alloca ptr, align 8
  %6 = alloca ptr, align 8
  %7 = alloca i32, align 4
  %8 = alloca i32, align 4
  %9 = alloca ptr, align 8
  %10 = alloca ptr, align 8
  %11 = alloca ptr, align 8
  %12 = alloca i32, align 4
  store ptr %0, ptr %4, align 8, !tbaa !171
  store ptr %1, ptr %5, align 8, !tbaa !100
  call void @llvm.lifetime.start.p0(i64 8, ptr %6) #14
  store ptr null, ptr %6, align 8, !tbaa !100
  call void @llvm.lifetime.start.p0(i64 4, ptr %7) #14
  store i32 0, ptr %7, align 4, !tbaa !19
  %13 = load ptr, ptr getelementptr inbounds nuw (%struct.ldbState, ptr @ldb, i32 0, i32 13), align 8, !tbaa !80
  %14 = call i64 @sdslen(ptr noundef %13)
  %15 = icmp eq i64 %14, 0
  br i1 %15, label %16, label %17

16:                                               ; preds = %2
  store ptr null, ptr %3, align 8
  store i32 1, ptr %8, align 4
  br label %149

17:                                               ; preds = %2
  call void @llvm.lifetime.start.p0(i64 8, ptr %9) #14
  %18 = load ptr, ptr getelementptr inbounds nuw (%struct.ldbState, ptr @ldb, i32 0, i32 13), align 8, !tbaa !80
  %19 = call ptr @sdsdup(ptr noundef %18)
  store ptr %19, ptr %9, align 8, !tbaa !16
  call void @llvm.lifetime.start.p0(i64 8, ptr %10) #14
  %20 = load ptr, ptr %9, align 8, !tbaa !16
  store ptr %20, ptr %10, align 8, !tbaa !16
  %21 = load ptr, ptr %10, align 8, !tbaa !16
  %22 = call ptr @strchr(ptr noundef %21, i32 noundef 42) #13
  store ptr %22, ptr %10, align 8, !tbaa !16
  %23 = load ptr, ptr %10, align 8, !tbaa !16
  %24 = icmp ne ptr %23, null
  br i1 %24, label %26, label %25

25:                                               ; preds = %17
  br label %141

26:                                               ; preds = %17
  %27 = load ptr, ptr %10, align 8, !tbaa !16
  %28 = getelementptr inbounds i8, ptr %27, i64 1
  store ptr %28, ptr %11, align 8, !tbaa !16
  %29 = load ptr, ptr %10, align 8, !tbaa !16
  %30 = call ptr @strstr(ptr noundef %29, ptr noundef @.str.62) #13
  store ptr %30, ptr %10, align 8, !tbaa !16
  %31 = load ptr, ptr %10, align 8, !tbaa !16
  %32 = icmp ne ptr %31, null
  br i1 %32, label %34, label %33

33:                                               ; preds = %26
  br label %144

34:                                               ; preds = %26
  %35 = load ptr, ptr %10, align 8, !tbaa !16
  store i8 0, ptr %35, align 1, !tbaa !21
  %36 = load ptr, ptr %10, align 8, !tbaa !16
  %37 = getelementptr inbounds i8, ptr %36, i64 2
  store ptr %37, ptr %10, align 8, !tbaa !16
  %38 = load ptr, ptr %11, align 8, !tbaa !16
  %39 = call i32 @atoi(ptr noundef %38) #13
  %40 = load ptr, ptr %4, align 8, !tbaa !171
  store i32 %39, ptr %40, align 4, !tbaa !19
  %41 = load ptr, ptr %4, align 8, !tbaa !171
  %42 = load i32, ptr %41, align 4, !tbaa !19
  %43 = icmp sle i32 %42, 0
  br i1 %43, label %48, label %44

44:                                               ; preds = %34
  %45 = load ptr, ptr %4, align 8, !tbaa !171
  %46 = load i32, ptr %45, align 4, !tbaa !19
  %47 = icmp sgt i32 %46, 1024
  br i1 %47, label %48, label %49

48:                                               ; preds = %44, %34
  br label %141

49:                                               ; preds = %44
  %50 = load ptr, ptr %4, align 8, !tbaa !171
  %51 = load i32, ptr %50, align 4, !tbaa !19
  %52 = sext i32 %51 to i64
  %53 = mul i64 8, %52
  %54 = call noalias ptr @zmalloc(i64 noundef %53) #16
  store ptr %54, ptr %6, align 8, !tbaa !100
  store i32 0, ptr %7, align 4, !tbaa !19
  br label %55

55:                                               ; preds = %137, %49
  %56 = load i32, ptr %7, align 4, !tbaa !19
  %57 = load ptr, ptr %4, align 8, !tbaa !171
  %58 = load i32, ptr %57, align 4, !tbaa !19
  %59 = icmp slt i32 %56, %58
  br i1 %59, label %60, label %138

60:                                               ; preds = %55
  %61 = load ptr, ptr %10, align 8, !tbaa !16
  %62 = load i8, ptr %61, align 1, !tbaa !21
  %63 = sext i8 %62 to i32
  %64 = icmp eq i32 %63, 0
  br i1 %64, label %65, label %66

65:                                               ; preds = %60
  br label %144

66:                                               ; preds = %60
  %67 = load ptr, ptr %10, align 8, !tbaa !16
  %68 = load i8, ptr %67, align 1, !tbaa !21
  %69 = sext i8 %68 to i32
  %70 = icmp ne i32 %69, 36
  br i1 %70, label %71, label %72

71:                                               ; preds = %66
  br label %141

72:                                               ; preds = %66
  %73 = load ptr, ptr %10, align 8, !tbaa !16
  %74 = getelementptr inbounds i8, ptr %73, i64 1
  store ptr %74, ptr %11, align 8, !tbaa !16
  %75 = load ptr, ptr %10, align 8, !tbaa !16
  %76 = call ptr @strstr(ptr noundef %75, ptr noundef @.str.62) #13
  store ptr %76, ptr %10, align 8, !tbaa !16
  %77 = load ptr, ptr %10, align 8, !tbaa !16
  %78 = icmp ne ptr %77, null
  br i1 %78, label %80, label %79

79:                                               ; preds = %72
  br label %144

80:                                               ; preds = %72
  %81 = load ptr, ptr %10, align 8, !tbaa !16
  store i8 0, ptr %81, align 1, !tbaa !21
  %82 = load ptr, ptr %10, align 8, !tbaa !16
  %83 = getelementptr inbounds i8, ptr %82, i64 2
  store ptr %83, ptr %10, align 8, !tbaa !16
  call void @llvm.lifetime.start.p0(i64 4, ptr %12) #14
  %84 = load ptr, ptr %11, align 8, !tbaa !16
  %85 = call i32 @atoi(ptr noundef %84) #13
  store i32 %85, ptr %12, align 4, !tbaa !19
  %86 = load i32, ptr %12, align 4, !tbaa !19
  %87 = icmp sle i32 %86, 0
  br i1 %87, label %91, label %88

88:                                               ; preds = %80
  %89 = load i32, ptr %12, align 4, !tbaa !19
  %90 = icmp sgt i32 %89, 1024
  br i1 %90, label %91, label %92

91:                                               ; preds = %88, %80
  store i32 2, ptr %8, align 4
  br label %135

92:                                               ; preds = %88
  %93 = load ptr, ptr %10, align 8, !tbaa !16
  %94 = load i32, ptr %12, align 4, !tbaa !19
  %95 = sext i32 %94 to i64
  %96 = getelementptr inbounds i8, ptr %93, i64 %95
  %97 = getelementptr inbounds i8, ptr %96, i64 2
  %98 = load ptr, ptr %9, align 8, !tbaa !16
  %99 = ptrtoint ptr %97 to i64
  %100 = ptrtoint ptr %98 to i64
  %101 = sub i64 %99, %100
  %102 = load ptr, ptr %9, align 8, !tbaa !16
  %103 = call i64 @sdslen(ptr noundef %102)
  %104 = icmp ugt i64 %101, %103
  br i1 %104, label %105, label %106

105:                                              ; preds = %92
  store i32 3, ptr %8, align 4
  br label %135

106:                                              ; preds = %92
  %107 = load ptr, ptr %10, align 8, !tbaa !16
  %108 = load i32, ptr %12, align 4, !tbaa !19
  %109 = sext i32 %108 to i64
  %110 = call ptr @sdsnewlen(ptr noundef %107, i64 noundef %109)
  %111 = load ptr, ptr %6, align 8, !tbaa !100
  %112 = load i32, ptr %7, align 4, !tbaa !19
  %113 = add nsw i32 %112, 1
  store i32 %113, ptr %7, align 4, !tbaa !19
  %114 = sext i32 %112 to i64
  %115 = getelementptr inbounds ptr, ptr %111, i64 %114
  store ptr %110, ptr %115, align 8, !tbaa !16
  %116 = load i32, ptr %12, align 4, !tbaa !19
  %117 = load ptr, ptr %10, align 8, !tbaa !16
  %118 = sext i32 %116 to i64
  %119 = getelementptr inbounds i8, ptr %117, i64 %118
  store ptr %119, ptr %10, align 8, !tbaa !16
  %120 = load ptr, ptr %10, align 8, !tbaa !16
  %121 = getelementptr inbounds i8, ptr %120, i64 0
  %122 = load i8, ptr %121, align 1, !tbaa !21
  %123 = sext i8 %122 to i32
  %124 = icmp ne i32 %123, 13
  br i1 %124, label %131, label %125

125:                                              ; preds = %106
  %126 = load ptr, ptr %10, align 8, !tbaa !16
  %127 = getelementptr inbounds i8, ptr %126, i64 1
  %128 = load i8, ptr %127, align 1, !tbaa !21
  %129 = sext i8 %128 to i32
  %130 = icmp ne i32 %129, 10
  br i1 %130, label %131, label %132

131:                                              ; preds = %125, %106
  store i32 2, ptr %8, align 4
  br label %135

132:                                              ; preds = %125
  %133 = load ptr, ptr %10, align 8, !tbaa !16
  %134 = getelementptr inbounds i8, ptr %133, i64 2
  store ptr %134, ptr %10, align 8, !tbaa !16
  store i32 0, ptr %8, align 4
  br label %135

135:                                              ; preds = %131, %105, %91, %132
  call void @llvm.lifetime.end.p0(i64 4, ptr %12) #14
  %136 = load i32, ptr %8, align 4
  switch i32 %136, label %148 [
    i32 0, label %137
    i32 2, label %141
    i32 3, label %144
  ]

137:                                              ; preds = %135
  br label %55, !llvm.loop !172

138:                                              ; preds = %55
  %139 = load ptr, ptr %9, align 8, !tbaa !16
  call void @sdsfree(ptr noundef %139)
  %140 = load ptr, ptr %6, align 8, !tbaa !100
  store ptr %140, ptr %3, align 8
  store i32 1, ptr %8, align 4
  br label %148

141:                                              ; preds = %135, %71, %48, %25
  %142 = load ptr, ptr @ldbReplParseCommand.protocol_error, align 8, !tbaa !16
  %143 = load ptr, ptr %5, align 8, !tbaa !100
  store ptr %142, ptr %143, align 8, !tbaa !16
  br label %144

144:                                              ; preds = %141, %135, %79, %65, %33
  %145 = load ptr, ptr %6, align 8, !tbaa !100
  %146 = load i32, ptr %7, align 4, !tbaa !19
  call void @sdsfreesplitres(ptr noundef %145, i32 noundef %146)
  %147 = load ptr, ptr %9, align 8, !tbaa !16
  call void @sdsfree(ptr noundef %147)
  store ptr null, ptr %3, align 8
  store i32 1, ptr %8, align 4
  br label %148

148:                                              ; preds = %144, %138, %135
  call void @llvm.lifetime.end.p0(i64 8, ptr %10) #14
  call void @llvm.lifetime.end.p0(i64 8, ptr %9) #14
  br label %149

149:                                              ; preds = %148, %16
  call void @llvm.lifetime.end.p0(i64 4, ptr %7) #14
  call void @llvm.lifetime.end.p0(i64 8, ptr %6) #14
  %150 = load ptr, ptr %3, align 8
  ret ptr %150
}