; Function Attrs: nounwind uwtable
define dso_local ptr @ldbReplParseCommand(ptr noundef captures(none) %0, ptr noundef writeonly captures(none) %1) local_unnamed_addr #0 {
  %3 = load ptr, ptr getelementptr inbounds nuw (i8, ptr @ldb, i64 328), align 8, !tbaa !60
  %4 = getelementptr inbounds i8, ptr %3, i64 -1
  %5 = load i8, ptr %4, align 1, !tbaa !13
  %6 = zext i8 %5 to i32
  %7 = and i32 %6, 7
  switch i32 %7, label %sdslen.exit.thread [
    i32 0, label %8
    i32 1, label %11
    i32 2, label %15
    i32 3, label %19
    i32 4, label %23
  ]

8:                                                ; preds = %2
  %9 = lshr i32 %6, 3
  %10 = zext nneg i32 %9 to i64
  br label %sdslen.exit

11:                                               ; preds = %2
  %12 = getelementptr inbounds i8, ptr %3, i64 -3
  %13 = load i8, ptr %12, align 1, !tbaa !13
  %14 = zext i8 %13 to i64
  br label %sdslen.exit

15:                                               ; preds = %2
  %16 = getelementptr inbounds i8, ptr %3, i64 -5
  %17 = load i16, ptr %16, align 1, !tbaa !94
  %18 = zext i16 %17 to i64
  br label %sdslen.exit

19:                                               ; preds = %2
  %20 = getelementptr inbounds i8, ptr %3, i64 -9
  %21 = load i32, ptr %20, align 1, !tbaa !91
  %22 = zext i32 %21 to i64
  br label %sdslen.exit

23:                                               ; preds = %2
  %24 = getelementptr inbounds i8, ptr %3, i64 -17
  %25 = load i64, ptr %24, align 1, !tbaa !95
  br label %sdslen.exit

sdslen.exit:                                      ; preds = %8, %11, %15, %19, %23
  %.0.i = phi i64 [ %25, %23 ], [ %22, %19 ], [ %18, %15 ], [ %14, %11 ], [ %10, %8 ]
  %26 = icmp eq i64 %.0.i, 0
  br i1 %26, label %sdslen.exit.thread, label %27

27:                                               ; preds = %sdslen.exit
  %28 = tail call ptr @sdsdup(ptr noundef nonnull %3) #19
  %29 = tail call ptr @strchr(ptr noundef nonnull dereferenceable(1) %28, i32 noundef 42) #18
  %.not = icmp eq ptr %29, null
  br i1 %.not, label %.thread, label %30

30:                                               ; preds = %27
  %31 = tail call ptr @strstr(ptr noundef nonnull dereferenceable(1) %29, ptr noundef nonnull dereferenceable(1) @.str.62) #18
  %.not59 = icmp eq ptr %31, null
  br i1 %.not59, label %.thread72, label %32

32:                                               ; preds = %30
  %33 = getelementptr inbounds nuw i8, ptr %29, i64 1
  store i8 0, ptr %31, align 1, !tbaa !13
  %34 = tail call i64 @strtol(ptr noundef nonnull captures(none) %33, ptr noundef null, i32 noundef 10) #19
  %35 = trunc i64 %34 to i32
  store i32 %35, ptr %0, align 4, !tbaa !91
  %36 = add i32 %35, -1025
  %or.cond64 = icmp ult i32 %36, -1024
  br i1 %or.cond64, label %.thread, label %37

37:                                               ; preds = %32
  %38 = getelementptr inbounds nuw i8, ptr %31, i64 2
  %39 = shl i64 %34, 3
  %40 = and i64 %39, 34359738360
  %41 = tail call noalias ptr @zmalloc(i64 noundef %40) #22
  %42 = ptrtoint ptr %28 to i64
  %43 = getelementptr inbounds i8, ptr %28, i64 -1
  %44 = getelementptr inbounds i8, ptr %28, i64 -17
  %45 = getelementptr inbounds i8, ptr %28, i64 -9
  %46 = getelementptr inbounds i8, ptr %28, i64 -5
  %47 = getelementptr inbounds i8, ptr %28, i64 -3
  br label %48

48:                                               ; preds = %90, %37
  %indvars.iv = phi i64 [ %indvars.iv.next, %90 ], [ 0, %37 ]
  %.046 = phi ptr [ %65, %90 ], [ %38, %37 ]
  %49 = load i32, ptr %0, align 4, !tbaa !91
  %50 = sext i32 %49 to i64
  %51 = icmp slt i64 %indvars.iv, %50
  br i1 %51, label %52, label %sdslen.exit.thread.sink.split

52:                                               ; preds = %48
  %53 = load i8, ptr %.046, align 1, !tbaa !13
  switch i8 %53, label %.thread.loopexit [
    i8 0, label %.thread72.loopexit
    i8 36, label %54
  ]

54:                                               ; preds = %52
  %55 = tail call ptr @strstr(ptr noundef nonnull dereferenceable(1) %.046, ptr noundef nonnull dereferenceable(1) @.str.62) #18
  %.not61 = icmp eq ptr %55, null
  br i1 %.not61, label %.thread72.loopexit, label %56

56:                                               ; preds = %54
  %57 = getelementptr inbounds nuw i8, ptr %.046, i64 1
  store i8 0, ptr %55, align 1, !tbaa !13
  %58 = getelementptr inbounds nuw i8, ptr %55, i64 2
  %59 = tail call i64 @strtol(ptr noundef nonnull captures(none) %57, ptr noundef null, i32 noundef 10) #19
  %60 = trunc i64 %59 to i32
  %61 = add i32 %60, -1025
  %or.cond = icmp ult i32 %61, -1024
  br i1 %or.cond, label %.thread.loopexit, label %62

62:                                               ; preds = %56
  %63 = and i64 %59, 4294967295
  %64 = getelementptr inbounds nuw i8, ptr %58, i64 %63
  %65 = getelementptr inbounds nuw i8, ptr %64, i64 2
  %66 = ptrtoint ptr %65 to i64
  %67 = sub i64 %66, %42
  %68 = load i8, ptr %43, align 1, !tbaa !13
  %69 = zext i8 %68 to i32
  %70 = and i32 %69, 7
  switch i32 %70, label %sdslen.exit67 [
    i32 0, label %71
    i32 1, label %74
    i32 2, label %77
    i32 3, label %80
    i32 4, label %83
  ]

71:                                               ; preds = %62
  %72 = lshr i32 %69, 3
  %73 = zext nneg i32 %72 to i64
  br label %sdslen.exit67

74:                                               ; preds = %62
  %75 = load i8, ptr %47, align 1, !tbaa !13
  %76 = zext i8 %75 to i64
  br label %sdslen.exit67

77:                                               ; preds = %62
  %78 = load i16, ptr %46, align 1, !tbaa !94
  %79 = zext i16 %78 to i64
  br label %sdslen.exit67

80:                                               ; preds = %62
  %81 = load i32, ptr %45, align 1, !tbaa !91
  %82 = zext i32 %81 to i64
  br label %sdslen.exit67

83:                                               ; preds = %62
  %84 = load i64, ptr %44, align 1, !tbaa !95
  br label %sdslen.exit67

sdslen.exit67:                                    ; preds = %62, %71, %74, %77, %80, %83
  %.0.i66 = phi i64 [ %84, %83 ], [ %82, %80 ], [ %79, %77 ], [ %76, %74 ], [ %73, %71 ], [ 0, %62 ]
  %85 = icmp ugt i64 %67, %.0.i66
  br i1 %85, label %.thread72.loopexit, label %86

86:                                               ; preds = %sdslen.exit67
  %87 = tail call ptr @sdsnewlen(ptr noundef nonnull %58, i64 noundef %63) #19
  %indvars.iv.next = add nuw nsw i64 %indvars.iv, 1
  %88 = getelementptr inbounds nuw ptr, ptr %41, i64 %indvars.iv
  store ptr %87, ptr %88, align 8, !tbaa !92
  %89 = load i8, ptr %64, align 1, !tbaa !13
  %.not62 = icmp eq i8 %89, 13
  br i1 %.not62, label %90, label %.thread.loopexit

90:                                               ; preds = %86
  %91 = getelementptr inbounds nuw i8, ptr %64, i64 1
  %92 = load i8, ptr %91, align 1, !tbaa !13
  %.not63 = icmp eq i8 %92, 10
  br i1 %.not63, label %48, label %.thread.loopexit

.thread.loopexit:                                 ; preds = %90, %86, %56, %52
  %indvars.iv.next.lcssa.sink = phi i64 [ %indvars.iv, %52 ], [ %indvars.iv, %56 ], [ %indvars.iv.next, %86 ], [ %indvars.iv.next, %90 ]
  %indvars.le = trunc i64 %indvars.iv.next.lcssa.sink to i32
  br label %.thread

.thread:                                          ; preds = %.thread.loopexit, %32, %27
  %.051 = phi i32 [ 0, %32 ], [ 0, %27 ], [ %indvars.le, %.thread.loopexit ]
  %.048 = phi ptr [ null, %32 ], [ null, %27 ], [ %41, %.thread.loopexit ]
  store ptr @.str.73, ptr %1, align 8, !tbaa !92
  br label %.thread72

.thread72.loopexit:                               ; preds = %54, %52, %sdslen.exit67
  %93 = trunc nuw nsw i64 %indvars.iv to i32
  br label %.thread72

.thread72:                                        ; preds = %.thread72.loopexit, %30, %.thread
  %.152 = phi i32 [ %.051, %.thread ], [ 0, %30 ], [ %93, %.thread72.loopexit ]
  %.149 = phi ptr [ %.048, %.thread ], [ null, %30 ], [ %41, %.thread72.loopexit ]
  tail call void @sdsfreesplitres(ptr noundef %.149, i32 noundef %.152) #19
  br label %sdslen.exit.thread.sink.split

sdslen.exit.thread.sink.split:                    ; preds = %48, %.thread72
  %.0.ph = phi ptr [ null, %.thread72 ], [ %41, %48 ]
  tail call void @sdsfree(ptr noundef nonnull %28) #19
  br label %sdslen.exit.thread

sdslen.exit.thread:                               ; preds = %sdslen.exit.thread.sink.split, %2, %sdslen.exit
  %.0 = phi ptr [ null, %sdslen.exit ], [ null, %2 ], [ %.0.ph, %sdslen.exit.thread.sink.split ]
  ret ptr %.0
}